target datalayout = "e-m:e-p270:32:32-p271:32:32-p272:64:64-i64:64-i128:128-f80:128-n8:16:32:64-S128"
target triple = "x86_64-pc-linux-gnu"

%"class.icu_77::RBBITableBuilder" = type <{ ptr, ptr, ptr, ptr, ptr, ptr, i32, [4 x i8] }>
%"class.icu_77::UVector" = type { %"class.icu_77::UObject", i32, i32, ptr, ptr, ptr }
%"class.icu_77::UObject" = type { ptr }
%"class.icu_77::UnicodeString" = type { %"class.icu_77::Replaceable", %"union.icu_77::UnicodeString::StackBufferOrFields" }
%"class.icu_77::Replaceable" = type { %"class.icu_77::UObject" }
%"union.icu_77::UnicodeString::StackBufferOrFields" = type { %struct.anon.0, [32 x i8] }
%struct.anon.0 = type { i16, i32, i32, ptr }
%"struct.std::pair" = type { i32, i32 }
%struct.anon = type { i16, [27 x i16] }

; Function Attrs: inlinehint mustprogress nounwind uwtable
define linkonce_odr noundef ptr @_ZNK6icu_7713UnicodeString13getArrayStartEv(ptr noundef nonnull align 8 dereferenceable(64) %0) #1 comdat align 2 {
  %2 = alloca ptr, align 8
  store ptr %0, ptr %2, align 8, !tbaa !138
  %3 = load ptr, ptr %2, align 8
  %4 = getelementptr inbounds nuw %"class.icu_77::UnicodeString", ptr %3, i32 0, i32 1
  %5 = getelementptr inbounds nuw %struct.anon.0, ptr %4, i32 0, i32 0
  %6 = load i16, ptr %5, align 8, !tbaa !77
  %7 = sext i16 %6 to i32
  %8 = and i32 %7, 2
  %9 = icmp ne i32 %8, 0
  br i1 %9, label %10, label %14

10:                                               ; preds = %1
  %11 = getelementptr inbounds nuw %"class.icu_77::UnicodeString", ptr %3, i32 0, i32 1
  %12 = getelementptr inbounds nuw %struct.anon, ptr %11, i32 0, i32 1
  %13 = getelementptr inbounds [27 x i16], ptr %12, i64 0, i64 0
  br label %18

14:                                               ; preds = %1
  %15 = getelementptr inbounds nuw %"class.icu_77::UnicodeString", ptr %3, i32 0, i32 1
  %16 = getelementptr inbounds nuw %struct.anon.0, ptr %15, i32 0, i32 3
  %17 = load ptr, ptr %16, align 8, !tbaa !77
  br label %18

18:                                               ; preds = %14, %10
  %19 = phi ptr [ %13, %10 ], [ %17, %14 ]
  ret ptr %19
}

; Function Attrs: inlinehint mustprogress uwtable
define linkonce_odr noundef zeroext i16 @_ZNK6icu_7713UnicodeString8doCharAtEi(ptr noundef nonnull align 8 dereferenceable(64) %0, i32 noundef %1) #8 comdat align 2 {
  %3 = alloca i16, align 2
  %4 = alloca ptr, align 8
  %5 = alloca i32, align 4
  store ptr %0, ptr %4, align 8, !tbaa !138
  store i32 %1, ptr %5, align 4, !tbaa !26
  %6 = load ptr, ptr %4, align 8
  %7 = load i32, ptr %5, align 4, !tbaa !26
  %8 = call noundef i32 @_ZNK6icu_7713UnicodeString6lengthEv(ptr noundef nonnull align 8 dereferenceable(64) %6)
  %9 = icmp ult i32 %7, %8
  br i1 %9, label %10, label %16

10:                                               ; preds = %2
  %11 = call noundef ptr @_ZNK6icu_7713UnicodeString13getArrayStartEv(ptr noundef nonnull align 8 dereferenceable(64) %6)
  %12 = load i32, ptr %5, align 4, !tbaa !26
  %13 = sext i32 %12 to i64
  %14 = getelementptr inbounds i16, ptr %11, i64 %13
  %15 = load i16, ptr %14, align 2, !tbaa !176
  store i16 %15, ptr %3, align 2
  br label %17

16:                                               ; preds = %2
  store i16 -1, ptr %3, align 2
  br label %17

17:                                               ; preds = %16, %10
  %18 = load i16, ptr %3, align 2
  ret i16 %18
}

; Function Attrs: inlinehint mustprogress nounwind uwtable
define linkonce_odr noundef i32 @_ZNK6icu_7713UnicodeString14getShortLengthEv(ptr noundef nonnull align 8 dereferenceable(64) %0) #1 comdat align 2 {
  %2 = alloca ptr, align 8
  store ptr %0, ptr %2, align 8, !tbaa !138
  %3 = load ptr, ptr %2, align 8
  %4 = getelementptr inbounds nuw %"class.icu_77::UnicodeString", ptr %3, i32 0, i32 1
  %5 = getelementptr inbounds nuw %struct.anon.0, ptr %4, i32 0, i32 0
  %6 = load i16, ptr %5, align 8, !tbaa !77
  %7 = sext i16 %6 to i32
  %8 = ashr i32 %7, 5
  ret i32 %8
}

; Function Attrs: inlinehint mustprogress nounwind uwtable
define linkonce_odr noundef signext i8 @_ZNK6icu_7713UnicodeString14hasShortLengthEv(ptr noundef nonnull align 8 dereferenceable(64) %0) #1 comdat align 2 {
  %2 = alloca ptr, align 8
  store ptr %0, ptr %2, align 8, !tbaa !138
  %3 = load ptr, ptr %2, align 8
  %4 = getelementptr inbounds nuw %"class.icu_77::UnicodeString", ptr %3, i32 0, i32 1
  %5 = getelementptr inbounds nuw %struct.anon.0, ptr %4, i32 0, i32 0
  %6 = load i16, ptr %5, align 8, !tbaa !77
  %7 = sext i16 %6 to i32
  %8 = icmp sge i32 %7, 0
  %9 = zext i1 %8 to i8
  ret i8 %9
}

; Function Attrs: inlinehint mustprogress uwtable
define linkonce_odr noundef zeroext i16 @_ZNK6icu_7713UnicodeString6charAtEi(ptr noundef nonnull align 8 dereferenceable(64) %0, i32 noundef %1) #8 comdat align 2 {
  %3 = alloca ptr, align 8
  %4 = alloca i32, align 4
  store ptr %0, ptr %3, align 8, !tbaa !138
  store i32 %1, ptr %4, align 4, !tbaa !26
  %5 = load ptr, ptr %3, align 8
  %6 = load i32, ptr %4, align 4, !tbaa !26
  %7 = call noundef zeroext i16 @_ZNK6icu_7713UnicodeString8doCharAtEi(ptr noundef nonnull align 8 dereferenceable(64) %5, i32 noundef %6)
  ret i16 %7
}

; Function Attrs: inlinehint mustprogress uwtable
define linkonce_odr noundef i32 @_ZNK6icu_7713UnicodeString6lengthEv(ptr noundef nonnull align 8 dereferenceable(64) %0) #8 comdat align 2 {
  %2 = alloca ptr, align 8
  store ptr %0, ptr %2, align 8, !tbaa !138
  %3 = load ptr, ptr %2, align 8
  %4 = call noundef signext i8 @_ZNK6icu_7713UnicodeString14hasShortLengthEv(ptr noundef nonnull align 8 dereferenceable(64) %3)
  %5 = icmp ne i8 %4, 0
  br i1 %5, label %6, label %8

6:                                                ; preds = %1
  %7 = call noundef i32 @_ZNK6icu_7713UnicodeString14getShortLengthEv(ptr noundef nonnull align 8 dereferenceable(64) %3)
  br label %12

8:                                                ; preds = %1
  %9 = getelementptr inbounds nuw %"class.icu_77::UnicodeString", ptr %3, i32 0, i32 1
  %10 = getelementptr inbounds nuw %struct.anon.0, ptr %9, i32 0, i32 1
  %11 = load i32, ptr %10, align 4, !tbaa !77
  br label %12

12:                                               ; preds = %8, %6
  %13 = phi i32 [ %7, %6 ], [ %11, %8 ]
  ret i32 %13
}

; Function Attrs: inlinehint mustprogress nounwind uwtable
define linkonce_odr noundef i32 @_ZNK6icu_777UVector4sizeEv(ptr noundef nonnull align 8 dereferenceable(40) %0) #1 comdat align 2 {
  %2 = alloca ptr, align 8
  store ptr %0, ptr %2, align 8, !tbaa !31
  %3 = load ptr, ptr %2, align 8
  %4 = getelementptr inbounds nuw %"class.icu_77::UVector", ptr %3, i32 0, i32 1
  %5 = load i32, ptr %4, align 8, !tbaa !32
  ret i32 %5
}

; Function Attrs: mustprogress uwtable
define noundef zeroext i1 @_ZN6icu_7716RBBITableBuilder22findDuplicateSafeStateEPSt4pairIiiE(ptr noundef nonnull align 8 dereferenceable(52) %0, ptr noundef %1) #0 align 2 {
  %3 = alloca i1, align 1
  %4 = alloca ptr, align 8
  %5 = alloca ptr, align 8
  %6 = alloca i32, align 4
  %7 = alloca ptr, align 8
  %8 = alloca ptr, align 8
  %9 = alloca i8, align 1
  %10 = alloca i32, align 4
  %11 = alloca i32, align 4
  %12 = alloca i32, align 4
  %13 = alloca i32, align 4
  %14 = alloca i32, align 4
  store ptr %0, ptr %4, align 8, !tbaa !3
  store ptr %1, ptr %5, align 8, !tbaa !124
  %15 = load ptr, ptr %4, align 8
  call void @llvm.lifetime.start.p0(i64 4, ptr %6) #11
  %16 = getelementptr inbounds nuw %"class.icu_77::RBBITableBuilder", ptr %15, i32 0, i32 4
  %17 = load ptr, ptr %16, align 8, !tbaa !21
  %18 = call noundef i32 @_ZNK6icu_777UVector4sizeEv(ptr noundef nonnull align 8 dereferenceable(40) %17)
  store i32 %18, ptr %6, align 4, !tbaa !26
  br label %19

19:                                               ; preds = %121, %2
  %20 = load ptr, ptr %5, align 8, !tbaa !124
  %21 = getelementptr inbounds nuw %"struct.std::pair", ptr %20, i32 0, i32 0
  %22 = load i32, ptr %21, align 4, !tbaa !126
  %23 = load i32, ptr %6, align 4, !tbaa !26
  %24 = sub nsw i32 %23, 1
  %25 = icmp slt i32 %22, %24
  br i1 %25, label %26, label %126

26:                                               ; preds = %19
  call void @llvm.lifetime.start.p0(i64 8, ptr %7) #11
  %27 = getelementptr inbounds nuw %"class.icu_77::RBBITableBuilder", ptr %15, i32 0, i32 4
  %28 = load ptr, ptr %27, align 8, !tbaa !21
  %29 = load ptr, ptr %5, align 8, !tbaa !124
  %30 = getelementptr inbounds nuw %"struct.std::pair", ptr %29, i32 0, i32 0
  %31 = load i32, ptr %30, align 4, !tbaa !126
  %32 = call noundef ptr @_ZNK6icu_777UVector9elementAtEi(ptr noundef nonnull align 8 dereferenceable(40) %28, i32 noundef %31)
  store ptr %32, ptr %7, align 8, !tbaa !138
  %33 = load ptr, ptr %5, align 8, !tbaa !124
  %34 = getelementptr inbounds nuw %"struct.std::pair", ptr %33, i32 0, i32 0
  %35 = load i32, ptr %34, align 4, !tbaa !126
  %36 = add nsw i32 %35, 1
  %37 = load ptr, ptr %5, align 8, !tbaa !124
  %38 = getelementptr inbounds nuw %"struct.std::pair", ptr %37, i32 0, i32 1
  store i32 %36, ptr %38, align 4, !tbaa !128
  br label %39

39:                                               ; preds = %112, %26
  %40 = load ptr, ptr %5, align 8, !tbaa !124
  %41 = getelementptr inbounds nuw %"struct.std::pair", ptr %40, i32 0, i32 1
  %42 = load i32, ptr %41, align 4, !tbaa !128
  %43 = load i32, ptr %6, align 4, !tbaa !26
  %44 = icmp slt i32 %42, %43
  br i1 %44, label %45, label %117

45:                                               ; preds = %39
  call void @llvm.lifetime.start.p0(i64 8, ptr %8) #11
  %46 = getelementptr inbounds nuw %"class.icu_77::RBBITableBuilder", ptr %15, i32 0, i32 4
  %47 = load ptr, ptr %46, align 8, !tbaa !21
  %48 = load ptr, ptr %5, align 8, !tbaa !124
  %49 = getelementptr inbounds nuw %"struct.std::pair", ptr %48, i32 0, i32 1
  %50 = load i32, ptr %49, align 4, !tbaa !128
  %51 = call noundef ptr @_ZNK6icu_777UVector9elementAtEi(ptr noundef nonnull align 8 dereferenceable(40) %47, i32 noundef %50)
  store ptr %51, ptr %8, align 8, !tbaa !138
  call void @llvm.lifetime.start.p0(i64 1, ptr %9) #11
  store i8 1, ptr %9, align 1, !tbaa !83
  call void @llvm.lifetime.start.p0(i64 4, ptr %10) #11
  %52 = load ptr, ptr %7, align 8, !tbaa !138
  %53 = call noundef i32 @_ZNK6icu_7713UnicodeString6lengthEv(ptr noundef nonnull align 8 dereferenceable(64) %52)
  store i32 %53, ptr %10, align 4, !tbaa !26
  call void @llvm.lifetime.start.p0(i64 4, ptr %11) #11
  store i32 0, ptr %11, align 4, !tbaa !26
  br label %54

54:                                               ; preds = %100, %45
  %55 = load i32, ptr %11, align 4, !tbaa !26
  %56 = load i32, ptr %10, align 4, !tbaa !26
  %57 = icmp slt i32 %55, %56
  br i1 %57, label %59, label %58

58:                                               ; preds = %54
  store i32 8, ptr %12, align 4
  br label %103

59:                                               ; preds = %54
  call void @llvm.lifetime.start.p0(i64 4, ptr %13) #11
  %60 = load ptr, ptr %7, align 8, !tbaa !138
  %61 = load i32, ptr %11, align 4, !tbaa !26
  %62 = call noundef zeroext i16 @_ZNK6icu_7713UnicodeString6charAtEi(ptr noundef nonnull align 8 dereferenceable(64) %60, i32 noundef %61)
  %63 = zext i16 %62 to i32
  store i32 %63, ptr %13, align 4, !tbaa !26
  call void @llvm.lifetime.start.p0(i64 4, ptr %14) #11
  %64 = load ptr, ptr %8, align 8, !tbaa !138
  %65 = load i32, ptr %11, align 4, !tbaa !26
  %66 = call noundef zeroext i16 @_ZNK6icu_7713UnicodeString6charAtEi(ptr noundef nonnull align 8 dereferenceable(64) %64, i32 noundef %65)
  %67 = zext i16 %66 to i32
  store i32 %67, ptr %14, align 4, !tbaa !26
  %68 = load i32, ptr %13, align 4, !tbaa !26
  %69 = load i32, ptr %14, align 4, !tbaa !26
  %70 = icmp eq i32 %68, %69
  br i1 %70, label %96, label %71

71:                                               ; preds = %59
  %72 = load i32, ptr %13, align 4, !tbaa !26
  %73 = load ptr, ptr %5, align 8, !tbaa !124
  %74 = getelementptr inbounds nuw %"struct.std::pair", ptr %73, i32 0, i32 0
  %75 = load i32, ptr %74, align 4, !tbaa !126
  %76 = icmp eq i32 %72, %75
  br i1 %76, label %83, label %77

77:                                               ; preds = %71
  %78 = load i32, ptr %13, align 4, !tbaa !26
  %79 = load ptr, ptr %5, align 8, !tbaa !124
  %80 = getelementptr inbounds nuw %"struct.std::pair", ptr %79, i32 0, i32 1
  %81 = load i32, ptr %80, align 4, !tbaa !128
  %82 = icmp eq i32 %78, %81
  br i1 %82, label %83, label %95

83:                                               ; preds = %77, %71
  %84 = load i32, ptr %14, align 4, !tbaa !26
  %85 = load ptr, ptr %5, align 8, !tbaa !124
  %86 = getelementptr inbounds nuw %"struct.std::pair", ptr %85, i32 0, i32 0
  %87 = load i32, ptr %86, align 4, !tbaa !126
  %88 = icmp eq i32 %84, %87
  br i1 %88, label %96, label %89

89:                                               ; preds = %83
  %90 = load i32, ptr %14, align 4, !tbaa !26
  %91 = load ptr, ptr %5, align 8, !tbaa !124
  %92 = getelementptr inbounds nuw %"struct.std::pair", ptr %91, i32 0, i32 1
  %93 = load i32, ptr %92, align 4, !tbaa !128
  %94 = icmp eq i32 %90, %93
  br i1 %94, label %96, label %95

95:                                               ; preds = %89, %77
  store i8 0, ptr %9, align 1, !tbaa !83
  store i32 8, ptr %12, align 4
  br label %97

96:                                               ; preds = %89, %83, %59
  store i32 0, ptr %12, align 4
  br label %97

97:                                               ; preds = %96, %95
  call void @llvm.lifetime.end.p0(i64 4, ptr %14) #11
  call void @llvm.lifetime.end.p0(i64 4, ptr %13) #11
  %98 = load i32, ptr %12, align 4
  switch i32 %98, label %103 [
    i32 0, label %99
  ]

99:                                               ; preds = %97
  br label %100

100:                                              ; preds = %99
  %101 = load i32, ptr %11, align 4, !tbaa !26
  %102 = add nsw i32 %101, 1
  store i32 %102, ptr %11, align 4, !tbaa !26
  br label %54, !llvm.loop !139

103:                                              ; preds = %97, %58
  call void @llvm.lifetime.end.p0(i64 4, ptr %11) #11
  br label %104

104:                                              ; preds = %103
  %105 = load i8, ptr %9, align 1, !tbaa !83, !range !86, !noundef !87
  %106 = trunc i8 %105 to i1
  br i1 %106, label %107, label %108

107:                                              ; preds = %104
  store i1 true, ptr %3, align 1
  store i32 1, ptr %12, align 4
  br label %109

108:                                              ; preds = %104
  store i32 0, ptr %12, align 4
  br label %109

109:                                              ; preds = %108, %107
  call void @llvm.lifetime.end.p0(i64 4, ptr %10) #11
  call void @llvm.lifetime.end.p0(i64 1, ptr %9) #11
  call void @llvm.lifetime.end.p0(i64 8, ptr %8) #11
  %110 = load i32, ptr %12, align 4
  switch i32 %110, label %118 [
    i32 0, label %111
  ]

111:                                              ; preds = %109
  br label %112

112:                                              ; preds = %111
  %113 = load ptr, ptr %5, align 8, !tbaa !124
  %114 = getelementptr inbounds nuw %"struct.std::pair", ptr %113, i32 0, i32 1
  %115 = load i32, ptr %114, align 4, !tbaa !128
  %116 = add nsw i32 %115, 1
  store i32 %116, ptr %114, align 4, !tbaa !128
  br label %39, !llvm.loop !140

117:                                              ; preds = %39
  store i32 0, ptr %12, align 4
  br label %118

118:                                              ; preds = %117, %109
  call void @llvm.lifetime.end.p0(i64 8, ptr %7) #11
  %119 = load i32, ptr %12, align 4
  switch i32 %119, label %127 [
    i32 0, label %120
  ]

120:                                              ; preds = %118
  br label %121

121:                                              ; preds = %120
  %122 = load ptr, ptr %5, align 8, !tbaa !124
  %123 = getelementptr inbounds nuw %"struct.std::pair", ptr %122, i32 0, i32 0
  %124 = load i32, ptr %123, align 4, !tbaa !126
  %125 = add nsw i32 %124, 1
  store i32 %125, ptr %123, align 4, !tbaa !126
  br label %19, !llvm.loop !141

126:                                              ; preds = %19
  store i1 false, ptr %3, align 1
  store i32 1, ptr %12, align 4
  br label %127

127:                                              ; preds = %126, %118
  call void @llvm.lifetime.end.p0(i64 4, ptr %6) #11
  %128 = load i1, ptr %3, align 1
  ret i1 %128
}