; Function Attrs: mustprogress uwtable
define noundef zeroext i1 @_ZN6icu_7716RBBITableBuilder22findDuplicateSafeStateEPSt4pairIiiE(ptr noundef nonnull readonly align 8 captures(none) dereferenceable(52) %0, ptr noundef captures(none) %1) local_unnamed_addr #0 align 2 {
  %3 = getelementptr inbounds nuw i8, ptr %0, i64 32
  %4 = load ptr, ptr %3, align 8, !tbaa !28
  %5 = getelementptr inbounds nuw i8, ptr %4, i64 8
  %6 = load i32, ptr %5, align 8, !tbaa !20
  %7 = add nsw i32 %6, -1
  %8 = load i32, ptr %1, align 4, !tbaa !107
  %9 = icmp slt i32 %8, %7
  br i1 %9, label %.lr.ph, label %.critedge52

.lr.ph:                                           ; preds = %2
  %10 = getelementptr inbounds nuw i8, ptr %1, i64 4
  br label %11

11:                                               ; preds = %.lr.ph, %.critedge
  %12 = phi i32 [ %8, %.lr.ph ], [ %86, %.critedge ]
  %13 = load ptr, ptr %3, align 8, !tbaa !28
  %14 = tail call noundef ptr @_ZNK6icu_777UVector9elementAtEi(ptr noundef nonnull align 8 dereferenceable(40) %13, i32 noundef %12)
  %15 = getelementptr inbounds nuw i8, ptr %14, i64 8
  %16 = getelementptr inbounds nuw i8, ptr %14, i64 12
  %17 = getelementptr inbounds nuw i8, ptr %14, i64 10
  %18 = getelementptr inbounds nuw i8, ptr %14, i64 24
  %storemerge.in.pre = load i32, ptr %1, align 4, !tbaa !77
  %storemerge97 = add nsw i32 %storemerge.in.pre, 1
  store i32 %storemerge97, ptr %10, align 4, !tbaa !109
  %.not98 = icmp slt i32 %storemerge97, %6
  br i1 %.not98, label %.lr.ph100, label %.critedge

.lr.ph100:                                        ; preds = %11, %.thread
  %storemerge99 = phi i32 [ %storemerge, %.thread ], [ %storemerge97, %11 ]
  %19 = load ptr, ptr %3, align 8, !tbaa !28
  %20 = tail call noundef ptr @_ZNK6icu_777UVector9elementAtEi(ptr noundef nonnull align 8 dereferenceable(40) %19, i32 noundef %storemerge99)
  %21 = load i16, ptr %15, align 8, !tbaa !116
  %22 = icmp slt i16 %21, 0
  %23 = ashr i16 %21, 5
  %24 = sext i16 %23 to i32
  %25 = load i32, ptr %16, align 4
  %26 = select i1 %22, i32 %25, i32 %24
  %.not5157 = icmp sgt i32 %26, 0
  br i1 %.not5157, label %_ZNK6icu_7713UnicodeString6charAtEi.exit.lr.ph, label %.critedge52

_ZNK6icu_7713UnicodeString6charAtEi.exit.lr.ph:   ; preds = %.lr.ph100
  %27 = and i16 %21, 2
  %.not.i.i.i = icmp eq i16 %27, 0
  %28 = load ptr, ptr %18, align 8
  %29 = select i1 %.not.i.i.i, ptr %28, ptr %17
  %30 = getelementptr inbounds nuw i8, ptr %20, i64 8
  %31 = load i16, ptr %30, align 8, !tbaa !116
  %.fr62 = freeze i16 %31
  %32 = icmp slt i16 %.fr62, 0
  %33 = lshr i16 %.fr62, 5
  %34 = zext nneg i16 %33 to i32
  %35 = getelementptr inbounds nuw i8, ptr %20, i64 12
  %36 = load i32, ptr %35, align 4
  %37 = select i1 %32, i32 %36, i32 %34
  %38 = and i16 %.fr62, 2
  %.not.i.i.i47 = icmp eq i16 %38, 0
  %39 = getelementptr inbounds nuw i8, ptr %20, i64 10
  %40 = getelementptr inbounds nuw i8, ptr %20, i64 24
  %41 = zext i32 %37 to i64
  %wide.trip.count71 = zext nneg i32 %26 to i64
  br i1 %.not.i.i.i47, label %_ZNK6icu_7713UnicodeString6charAtEi.exit.us, label %_ZNK6icu_7713UnicodeString6charAtEi.exit

_ZNK6icu_7713UnicodeString6charAtEi.exit.us:      ; preds = %_ZNK6icu_7713UnicodeString6charAtEi.exit.lr.ph, %63
  %indvars.iv68 = phi i64 [ %indvars.iv.next69, %63 ], [ 0, %_ZNK6icu_7713UnicodeString6charAtEi.exit.lr.ph ]
  %42 = getelementptr inbounds nuw i16, ptr %29, i64 %indvars.iv68
  %43 = load i16, ptr %42, align 2, !tbaa !117
  %44 = zext i16 %43 to i32
  %45 = icmp samesign ult i64 %indvars.iv68, %41
  br i1 %45, label %46, label %_ZNK6icu_7713UnicodeString6charAtEi.exit48.us

46:                                               ; preds = %_ZNK6icu_7713UnicodeString6charAtEi.exit.us
  %47 = load ptr, ptr %40, align 8
  %48 = getelementptr inbounds nuw i16, ptr %47, i64 %indvars.iv68
  %49 = load i16, ptr %48, align 2, !tbaa !117
  br label %_ZNK6icu_7713UnicodeString6charAtEi.exit48.us

_ZNK6icu_7713UnicodeString6charAtEi.exit48.us:    ; preds = %46, %_ZNK6icu_7713UnicodeString6charAtEi.exit.us
  %.0.i.i46.us = phi i16 [ %49, %46 ], [ -1, %_ZNK6icu_7713UnicodeString6charAtEi.exit.us ]
  %50 = zext i16 %.0.i.i46.us to i32
  %51 = icmp eq i16 %43, %.0.i.i46.us
  br i1 %51, label %63, label %52

52:                                               ; preds = %_ZNK6icu_7713UnicodeString6charAtEi.exit48.us
  %53 = load i32, ptr %1, align 4, !tbaa !107
  %54 = icmp eq i32 %53, %44
  br i1 %54, label %58, label %55

55:                                               ; preds = %52
  %56 = load i32, ptr %10, align 4, !tbaa !109
  %57 = icmp eq i32 %56, %44
  br i1 %57, label %58, label %.thread

58:                                               ; preds = %55, %52
  %59 = icmp eq i32 %53, %50
  br i1 %59, label %63, label %60

60:                                               ; preds = %58
  %61 = load i32, ptr %10, align 4, !tbaa !109
  %62 = icmp eq i32 %61, %50
  br i1 %62, label %63, label %.thread

63:                                               ; preds = %60, %58, %_ZNK6icu_7713UnicodeString6charAtEi.exit48.us
  %indvars.iv.next69 = add nuw nsw i64 %indvars.iv68, 1
  %exitcond72.not = icmp eq i64 %indvars.iv.next69, %wide.trip.count71
  br i1 %exitcond72.not, label %.critedge52, label %_ZNK6icu_7713UnicodeString6charAtEi.exit.us, !llvm.loop !119

_ZNK6icu_7713UnicodeString6charAtEi.exit:         ; preds = %_ZNK6icu_7713UnicodeString6charAtEi.exit.lr.ph, %84
  %indvars.iv = phi i64 [ %indvars.iv.next, %84 ], [ 0, %_ZNK6icu_7713UnicodeString6charAtEi.exit.lr.ph ]
  %64 = getelementptr inbounds nuw i16, ptr %29, i64 %indvars.iv
  %65 = load i16, ptr %64, align 2, !tbaa !117
  %66 = zext i16 %65 to i32
  %67 = icmp samesign ult i64 %indvars.iv, %41
  br i1 %67, label %68, label %_ZNK6icu_7713UnicodeString6charAtEi.exit48

68:                                               ; preds = %_ZNK6icu_7713UnicodeString6charAtEi.exit
  %69 = getelementptr inbounds nuw i16, ptr %39, i64 %indvars.iv
  %70 = load i16, ptr %69, align 2, !tbaa !117
  br label %_ZNK6icu_7713UnicodeString6charAtEi.exit48

_ZNK6icu_7713UnicodeString6charAtEi.exit48:       ; preds = %_ZNK6icu_7713UnicodeString6charAtEi.exit, %68
  %.0.i.i46 = phi i16 [ %70, %68 ], [ -1, %_ZNK6icu_7713UnicodeString6charAtEi.exit ]
  %71 = zext i16 %.0.i.i46 to i32
  %72 = icmp eq i16 %65, %.0.i.i46
  br i1 %72, label %84, label %73

73:                                               ; preds = %_ZNK6icu_7713UnicodeString6charAtEi.exit48
  %74 = load i32, ptr %1, align 4, !tbaa !107
  %75 = icmp eq i32 %74, %66
  br i1 %75, label %79, label %76

76:                                               ; preds = %73
  %77 = load i32, ptr %10, align 4, !tbaa !109
  %78 = icmp eq i32 %77, %66
  br i1 %78, label %79, label %.thread

79:                                               ; preds = %76, %73
  %80 = icmp eq i32 %74, %71
  br i1 %80, label %84, label %81

81:                                               ; preds = %79
  %82 = load i32, ptr %10, align 4, !tbaa !109
  %83 = icmp eq i32 %82, %71
  br i1 %83, label %84, label %.thread

84:                                               ; preds = %81, %79, %_ZNK6icu_7713UnicodeString6charAtEi.exit48
  %indvars.iv.next = add nuw nsw i64 %indvars.iv, 1
  %exitcond.not = icmp eq i64 %indvars.iv.next, %wide.trip.count71
  br i1 %exitcond.not, label %.critedge52, label %_ZNK6icu_7713UnicodeString6charAtEi.exit, !llvm.loop !119

.thread:                                          ; preds = %81, %76, %55, %60
  %85 = phi i32 [ %53, %60 ], [ %53, %55 ], [ %74, %76 ], [ %74, %81 ]
  %storemerge.in74 = phi i32 [ %56, %55 ], [ %61, %60 ], [ %82, %81 ], [ %77, %76 ]
  %storemerge = add nsw i32 %storemerge.in74, 1
  store i32 %storemerge, ptr %10, align 4, !tbaa !109
  %.not = icmp slt i32 %storemerge, %6
  br i1 %.not, label %.lr.ph100, label %.critedge, !llvm.loop !120

.critedge:                                        ; preds = %.thread, %11
  %.lcssa93 = phi i32 [ %storemerge.in.pre, %11 ], [ %85, %.thread ]
  %86 = add nsw i32 %.lcssa93, 1
  store i32 %86, ptr %1, align 4, !tbaa !107
  %87 = icmp slt i32 %86, %7
  br i1 %87, label %11, label %.critedge52, !llvm.loop !121

.critedge52:                                      ; preds = %.critedge, %.lr.ph100, %84, %63, %2
  %88 = phi i1 [ false, %2 ], [ true, %63 ], [ true, %84 ], [ true, %.lr.ph100 ], [ false, %.critedge ]
  ret i1 %88
}